target datalayout = "e-m:e-p270:32:32-p271:32:32-p272:64:64-i64:64-i128:128-f80:128-n8:16:32:64-S128"
target triple = "x86_64-pc-linux-gnu"

; Function Attrs: nounwind uwtable
define zeroext i8 @lv_color24_luminance(ptr noundef %0) #0 {
  %2 = alloca ptr, align 8
  store ptr %0, ptr %2, align 8, !tbaa !3
  %3 = load ptr, ptr %2, align 8, !tbaa !3
  %4 = getelementptr inbounds i8, ptr %3, i64 2
  %5 = load i8, ptr %4, align 1, !tbaa !7
  %6 = zext i8 %5 to i32
  %7 = mul i32 77, %6
  %8 = load ptr, ptr %2, align 8, !tbaa !3
  %9 = getelementptr inbounds i8, ptr %8, i64 1
  %10 = load i8, ptr %9, align 1, !tbaa !7
  %11 = zext i8 %10 to i32
  %12 = mul i32 151, %11
  %13 = add i32 %7, %12
  %14 = load ptr, ptr %2, align 8, !tbaa !3
  %15 = getelementptr inbounds i8, ptr %14, i64 0
  %16 = load i8, ptr %15, align 1, !tbaa !7
  %17 = zext i8 %16 to i32
  %18 = mul i32 28, %17
  %19 = add i32 %13, %18
  %20 = trunc i32 %19 to i16
  %21 = zext i16 %20 to i32
  %22 = ashr i32 %21, 8
  %23 = trunc i32 %22 to i8
  ret i8 %23
}