; Function Attrs: mustprogress nofree norecurse nosync nounwind willreturn memory(argmem: read) uwtable
define zeroext i8 @lv_color24_luminance(ptr nocapture noundef readonly %0) local_unnamed_addr #3 {
  %2 = getelementptr inbounds i8, ptr %0, i64 2
  %3 = load i8, ptr %2, align 1, !tbaa !10
  %4 = zext i8 %3 to i32
  %5 = mul nuw nsw i32 %4, 77
  %6 = getelementptr inbounds i8, ptr %0, i64 1
  %7 = load i8, ptr %6, align 1, !tbaa !10
  %8 = zext i8 %7 to i32
  %9 = mul nuw nsw i32 %8, 151
  %10 = add nuw nsw i32 %9, %5
  %11 = load i8, ptr %0, align 1, !tbaa !10
  %12 = zext i8 %11 to i32
  %13 = mul nuw nsw i32 %12, 28
  %14 = add nuw nsw i32 %10, %13
  %15 = lshr i32 %14, 8
  %16 = trunc nuw i32 %15 to i8
  ret i8 %16
}